target datalayout = "e-m:e-p270:32:32-p271:32:32-p272:64:64-i64:64-i128:128-f80:128-n8:16:32:64-S128"
target triple = "x86_64-pc-linux-gnu"

%class.svector.13 = type { %class.vector.14 }
%class.vector.14 = type { ptr }
%class.ptr_vector.17 = type { %class.vector.18 }
%class.vector.18 = type { ptr }
%class.obj_ref = type { ptr, ptr }
%class.svector.113 = type { %class.vector.114 }
%class.vector.114 = type { ptr }
%"struct.smt::theory_user_propagator::prop_info" = type <{ %class.ptr_vector.17, %class.obj_ref, %class.svector.113, %class.svector.13, i32, [4 x i8] }>

; Function Attrs: mustprogress nounwind uwtable
define linkonce_odr hidden noundef ptr @_ZNK6vectorIN3sat7literalELb0EjE4dataEv(ptr noundef nonnull align 8 dereferenceable(8) %0) #4 comdat align 2 {
  %2 = alloca ptr, align 8
  store ptr %0, ptr %2, align 8, !tbaa !599
  %3 = load ptr, ptr %2, align 8
  %4 = getelementptr inbounds nuw %class.vector.14, ptr %3, i32 0, i32 0
  %5 = load ptr, ptr %4, align 8, !tbaa !751
  ret ptr %5
}

; Function Attrs: mustprogress nounwind uwtable
define linkonce_odr hidden noundef i32 @_ZNK6vectorIN3sat7literalELb0EjE4sizeEv(ptr noundef nonnull align 8 dereferenceable(8) %0) #4 comdat align 2 {
  %2 = alloca i32, align 4
  %3 = alloca ptr, align 8
  store ptr %0, ptr %3, align 8, !tbaa !599
  %4 = load ptr, ptr %3, align 8
  %5 = getelementptr inbounds nuw %class.vector.14, ptr %4, i32 0, i32 0
  %6 = load ptr, ptr %5, align 8, !tbaa !751
  %7 = icmp eq ptr %6, null
  br i1 %7, label %8, label %9

8:                                                ; preds = %1
  store i32 0, ptr %2, align 4
  br label %14

9:                                                ; preds = %1
  %10 = getelementptr inbounds nuw %class.vector.14, ptr %4, i32 0, i32 0
  %11 = load ptr, ptr %10, align 8, !tbaa !751
  %12 = getelementptr inbounds i32, ptr %11, i64 -1
  %13 = load i32, ptr %12, align 4, !tbaa !8
  store i32 %13, ptr %2, align 4
  br label %14

14:                                               ; preds = %9, %8
  %15 = load i32, ptr %2, align 4
  ret i32 %15
}

; Function Attrs: mustprogress nounwind uwtable
define linkonce_odr hidden noundef ptr @_ZNK7obj_refI4expr11ast_managerEcvPS0_Ev(ptr noundef nonnull align 8 dereferenceable(16) %0) #4 comdat align 2 {
  %2 = alloca ptr, align 8
  store ptr %0, ptr %2, align 8, !tbaa !624
  %3 = load ptr, ptr %2, align 8
  %4 = getelementptr inbounds nuw %class.obj_ref, ptr %3, i32 0, i32 0
  %5 = load ptr, ptr %4, align 8, !tbaa !626
  ret ptr %5
}

; Function Attrs: mustprogress uwtable
define hidden void @_ZN3smt22theory_user_propagator19propagate_new_fixedERKNS0_9prop_infoE(ptr noundef nonnull align 8 dereferenceable(532) %0, ptr noundef nonnull align 8 dereferenceable(44) %1) #6 align 2 {
  %3 = alloca ptr, align 8
  %4 = alloca ptr, align 8
  store ptr %0, ptr %3, align 8, !tbaa !28
  store ptr %1, ptr %4, align 8, !tbaa !641
  %5 = load ptr, ptr %3, align 8
  %6 = load ptr, ptr %4, align 8, !tbaa !641
  %7 = getelementptr inbounds nuw %"struct.smt::theory_user_propagator::prop_info", ptr %6, i32 0, i32 4
  %8 = load i32, ptr %7, align 8, !tbaa !642
  %9 = load ptr, ptr %4, align 8, !tbaa !641
  %10 = getelementptr inbounds nuw %"struct.smt::theory_user_propagator::prop_info", ptr %9, i32 0, i32 1
  %11 = call noundef ptr @_ZNK7obj_refI4expr11ast_managerEcvPS0_Ev(ptr noundef nonnull align 8 dereferenceable(16) %10)
  %12 = load ptr, ptr %4, align 8, !tbaa !641
  %13 = getelementptr inbounds nuw %"struct.smt::theory_user_propagator::prop_info", ptr %12, i32 0, i32 3
  %14 = call noundef i32 @_ZNK6vectorIN3sat7literalELb0EjE4sizeEv(ptr noundef nonnull align 8 dereferenceable(8) %13)
  %15 = load ptr, ptr %4, align 8, !tbaa !641
  %16 = getelementptr inbounds nuw %"struct.smt::theory_user_propagator::prop_info", ptr %15, i32 0, i32 3
  %17 = call noundef ptr @_ZNK6vectorIN3sat7literalELb0EjE4dataEv(ptr noundef nonnull align 8 dereferenceable(8) %16)
  call void @_ZN3smt22theory_user_propagator12new_fixed_ehEiP4exprjPKN3sat7literalE(ptr noundef nonnull align 8 dereferenceable(532) %5, i32 noundef %8, ptr noundef %11, i32 noundef %14, ptr noundef %17)
  ret void
}