; Function Attrs: mustprogress uwtable
define hidden void @_ZN3smt22theory_user_propagator19propagate_new_fixedERKNS0_9prop_infoE(ptr noundef nonnull align 8 dereferenceable(532) %0, ptr noundef nonnull readonly align 8 captures(none) dereferenceable(44) %1) local_unnamed_addr #4 align 2 {
  %3 = getelementptr inbounds nuw i8, ptr %1, i64 40
  %4 = load i32, ptr %3, align 8, !tbaa !564
  %5 = getelementptr inbounds nuw i8, ptr %1, i64 8
  %6 = load ptr, ptr %5, align 8, !tbaa !554
  %7 = getelementptr inbounds nuw i8, ptr %1, i64 32
  %8 = load ptr, ptr %7, align 8, !tbaa !515
  %9 = icmp eq ptr %8, null
  br i1 %9, label %_ZNK6vectorIN3sat7literalELb0EjE4sizeEv.exit, label %10

10:                                               ; preds = %2
  %11 = getelementptr inbounds i8, ptr %8, i64 -4
  %12 = load i32, ptr %11, align 4, !tbaa !508
  br label %_ZNK6vectorIN3sat7literalELb0EjE4sizeEv.exit

_ZNK6vectorIN3sat7literalELb0EjE4sizeEv.exit:     ; preds = %2, %10
  %.0.i = phi i32 [ %12, %10 ], [ 0, %2 ]
  tail call void @_ZN3smt22theory_user_propagator12new_fixed_ehEiP4exprjPKN3sat7literalE(ptr noundef nonnull align 8 dereferenceable(532) %0, i32 noundef %4, ptr noundef %6, i32 noundef %.0.i, ptr noundef %8)
  ret void
}